; Function Attrs: mustprogress uwtable
define void @ggml_backend_sched_synchronize(ptr noundef readonly captures(none) %0) local_unnamed_addr #0 {
  %2 = getelementptr inbounds nuw i8, ptr %0, i64 4
  %3 = load i32, ptr %2, align 4, !tbaa !115
  %4 = icmp sgt i32 %3, 0
  br i1 %4, label %.lr.ph, label %._crit_edge

.lr.ph:                                           ; preds = %1
  %5 = getelementptr inbounds nuw i8, ptr %0, i64 8
  br label %6

._crit_edge:                                      ; preds = %ggml_backend_synchronize.exit, %1
  ret void

6:                                                ; preds = %.lr.ph, %ggml_backend_synchronize.exit
  %7 = phi i32 [ %3, %.lr.ph ], [ %14, %ggml_backend_synchronize.exit ]
  %indvars.iv = phi i64 [ 0, %.lr.ph ], [ %indvars.iv.next, %ggml_backend_synchronize.exit ]
  %8 = getelementptr inbounds nuw [16 x ptr], ptr %5, i64 0, i64 %indvars.iv
  %9 = load ptr, ptr %8, align 8, !tbaa !102
  %10 = getelementptr inbounds nuw i8, ptr %9, i64 48
  %11 = load ptr, ptr %10, align 8, !tbaa !66
  %12 = icmp eq ptr %11, null
  br i1 %12, label %ggml_backend_synchronize.exit, label %13

13:                                               ; preds = %6
  tail call void %11(ptr noundef nonnull %9)
  %.pre = load i32, ptr %2, align 4, !tbaa !115
  br label %ggml_backend_synchronize.exit

ggml_backend_synchronize.exit:                    ; preds = %6, %13
  %14 = phi i32 [ %7, %6 ], [ %.pre, %13 ]
  %indvars.iv.next = add nuw nsw i64 %indvars.iv, 1
  %15 = sext i32 %14 to i64
  %16 = icmp slt i64 %indvars.iv.next, %15
  br i1 %16, label %6, label %._crit_edge, !llvm.loop !149
}